target datalayout = "e-m:e-p270:32:32-p271:32:32-p272:64:64-i64:64-i128:128-f80:128-n8:16:32:64-S128"
target triple = "x86_64-pc-linux-gnu"

%struct.Vec_Str_t_ = type { i32, i32, ptr }

@.str = private unnamed_addr constant [3 x i8] c"wb\00", align 1
@.str.1 = private unnamed_addr constant [31 x i8] c"Cannot open output file \22%s\22.\0A\00", align 1
@.str.2 = private unnamed_addr constant [50 x i8] c"The supergates are written using new format \22%s\22 \00", align 1
@.str.3 = private unnamed_addr constant [13 x i8] c"(%0.3f MB).\0A\00", align 1

; Function Attrs: inlinehint nounwind uwtable
define internal void @Vec_StrFree(ptr noundef %0) #3 {
  %2 = alloca ptr, align 8
  store ptr %0, ptr %2, align 8, !tbaa !16
  %3 = load ptr, ptr %2, align 8, !tbaa !16
  %4 = getelementptr inbounds nuw %struct.Vec_Str_t_, ptr %3, i32 0, i32 2
  %5 = load ptr, ptr %4, align 8, !tbaa !47
  %6 = icmp ne ptr %5, null
  br i1 %6, label %7, label %13

7:                                                ; preds = %1
  %8 = load ptr, ptr %2, align 8, !tbaa !16
  %9 = getelementptr inbounds nuw %struct.Vec_Str_t_, ptr %8, i32 0, i32 2
  %10 = load ptr, ptr %9, align 8, !tbaa !47
  call void @free(ptr noundef %10) #12
  %11 = load ptr, ptr %2, align 8, !tbaa !16
  %12 = getelementptr inbounds nuw %struct.Vec_Str_t_, ptr %11, i32 0, i32 2
  store ptr null, ptr %12, align 8, !tbaa !47
  br label %14

13:                                               ; preds = %1
  br label %14

14:                                               ; preds = %13, %7
  %15 = load ptr, ptr %2, align 8, !tbaa !16
  %16 = icmp ne ptr %15, null
  br i1 %16, label %17, label %19

17:                                               ; preds = %14
  %18 = load ptr, ptr %2, align 8, !tbaa !16
  call void @free(ptr noundef %18) #12
  store ptr null, ptr %2, align 8, !tbaa !16
  br label %20

19:                                               ; preds = %14
  br label %20

20:                                               ; preds = %19, %17
  ret void
}

; Function Attrs: inlinehint nounwind uwtable
define internal i32 @Vec_StrSize(ptr noundef %0) #3 {
  %2 = alloca ptr, align 8
  store ptr %0, ptr %2, align 8, !tbaa !16
  %3 = load ptr, ptr %2, align 8, !tbaa !16
  %4 = getelementptr inbounds nuw %struct.Vec_Str_t_, ptr %3, i32 0, i32 1
  %5 = load i32, ptr %4, align 4, !tbaa !49
  ret i32 %5
}

; Function Attrs: inlinehint nounwind uwtable
define internal ptr @Vec_StrArray(ptr noundef %0) #3 {
  %2 = alloca ptr, align 8
  store ptr %0, ptr %2, align 8, !tbaa !16
  %3 = load ptr, ptr %2, align 8, !tbaa !16
  %4 = getelementptr inbounds nuw %struct.Vec_Str_t_, ptr %3, i32 0, i32 2
  %5 = load ptr, ptr %4, align 8, !tbaa !47
  ret ptr %5
}

; Function Attrs: nounwind uwtable
define void @Super_Precompute(ptr noundef %0, i32 noundef %1, i32 noundef %2, i32 noundef %3, float noundef %4, float noundef %5, i32 noundef %6, i32 noundef %7, i32 noundef %8, ptr noundef %9) #0 {
  %11 = alloca ptr, align 8
  %12 = alloca i32, align 4
  %13 = alloca i32, align 4
  %14 = alloca i32, align 4
  %15 = alloca float, align 4
  %16 = alloca float, align 4
  %17 = alloca i32, align 4
  %18 = alloca i32, align 4
  %19 = alloca i32, align 4
  %20 = alloca ptr, align 8
  %21 = alloca ptr, align 8
  %22 = alloca ptr, align 8
  %23 = alloca i32, align 4
  store ptr %0, ptr %11, align 8, !tbaa !3
  store i32 %1, ptr %12, align 4, !tbaa !8
  store i32 %2, ptr %13, align 4, !tbaa !8
  store i32 %3, ptr %14, align 4, !tbaa !8
  store float %4, ptr %15, align 4, !tbaa !10
  store float %5, ptr %16, align 4, !tbaa !10
  store i32 %6, ptr %17, align 4, !tbaa !8
  store i32 %7, ptr %18, align 4, !tbaa !8
  store i32 %8, ptr %19, align 4, !tbaa !8
  store ptr %9, ptr %20, align 8, !tbaa !12
  call void @llvm.lifetime.start.p0(i64 8, ptr %21) #12
  call void @llvm.lifetime.start.p0(i64 8, ptr %22) #12
  %24 = load ptr, ptr %20, align 8, !tbaa !12
  %25 = call noalias ptr @fopen(ptr noundef %24, ptr noundef @.str)
  store ptr %25, ptr %22, align 8, !tbaa !14
  %26 = load ptr, ptr %22, align 8, !tbaa !14
  %27 = icmp eq ptr %26, null
  br i1 %27, label %28, label %31

28:                                               ; preds = %10
  %29 = load ptr, ptr %20, align 8, !tbaa !12
  %30 = call i32 (ptr, ...) @printf(ptr noundef @.str.1, ptr noundef %29)
  store i32 1, ptr %23, align 4
  br label %67

31:                                               ; preds = %10
  %32 = load ptr, ptr %11, align 8, !tbaa !3
  %33 = load i32, ptr %12, align 4, !tbaa !8
  %34 = load i32, ptr %13, align 4, !tbaa !8
  %35 = load i32, ptr %14, align 4, !tbaa !8
  %36 = load float, ptr %15, align 4, !tbaa !10
  %37 = load float, ptr %16, align 4, !tbaa !10
  %38 = load i32, ptr %17, align 4, !tbaa !8
  %39 = load i32, ptr %18, align 4, !tbaa !8
  %40 = load i32, ptr %19, align 4, !tbaa !8
  %41 = call ptr @Super_PrecomputeStr(ptr noundef %32, i32 noundef %33, i32 noundef %34, i32 noundef %35, float noundef %36, float noundef %37, i32 noundef %38, i32 noundef %39, i32 noundef %40)
  store ptr %41, ptr %21, align 8, !tbaa !16
  %42 = load ptr, ptr %21, align 8, !tbaa !16
  %43 = icmp ne ptr %42, null
  br i1 %43, label %44, label %53

44:                                               ; preds = %31
  %45 = load ptr, ptr %21, align 8, !tbaa !16
  %46 = call ptr @Vec_StrArray(ptr noundef %45)
  %47 = load ptr, ptr %21, align 8, !tbaa !16
  %48 = call i32 @Vec_StrSize(ptr noundef %47)
  %49 = sext i32 %48 to i64
  %50 = load ptr, ptr %22, align 8, !tbaa !14
  %51 = call i64 @fwrite(ptr noundef %46, i64 noundef 1, i64 noundef %49, ptr noundef %50)
  %52 = load ptr, ptr %21, align 8, !tbaa !16
  call void @Vec_StrFree(ptr noundef %52)
  br label %53

53:                                               ; preds = %44, %31
  %54 = load ptr, ptr %22, align 8, !tbaa !14
  %55 = call i32 @fclose(ptr noundef %54)
  %56 = load i32, ptr %19, align 4, !tbaa !8
  %57 = icmp ne i32 %56, 0
  br i1 %57, label %58, label %66

58:                                               ; preds = %53
  %59 = load ptr, ptr %20, align 8, !tbaa !12
  %60 = call i32 (ptr, ...) @printf(ptr noundef @.str.2, ptr noundef %59)
  %61 = load ptr, ptr %20, align 8, !tbaa !12
  %62 = call i32 @Extra_FileSize(ptr noundef %61)
  %63 = sitofp i32 %62 to double
  %64 = fdiv double %63, 0x4130000000000000
  %65 = call i32 (ptr, ...) @printf(ptr noundef @.str.3, double noundef %64)
  br label %66

66:                                               ; preds = %58, %53
  store i32 0, ptr %23, align 4
  br label %67

67:                                               ; preds = %66, %28
  call void @llvm.lifetime.end.p0(i64 8, ptr %22) #12
  call void @llvm.lifetime.end.p0(i64 8, ptr %21) #12
  %68 = load i32, ptr %23, align 4
  switch i32 %68, label %70 [
    i32 0, label %69
    i32 1, label %69
  ]

69:                                               ; preds = %67, %67
  ret void

70:                                               ; preds = %67
  unreachable
}