; Function Attrs: nounwind uwtable
define void @Super_Precompute(ptr noundef %0, i32 noundef %1, i32 noundef %2, i32 noundef %3, float noundef %4, float noundef %5, i32 noundef %6, i32 noundef %7, i32 noundef %8, ptr noundef %9) local_unnamed_addr #0 {
  %11 = tail call noalias ptr @fopen(ptr noundef %9, ptr noundef nonnull @.str)
  %12 = icmp eq ptr %11, null
  br i1 %12, label %13, label %15

13:                                               ; preds = %10
  %14 = tail call i32 (ptr, ...) @printf(ptr noundef nonnull dereferenceable(1) @.str.1, ptr noundef %9)
  br label %32

15:                                               ; preds = %10
  %16 = tail call ptr @Super_PrecomputeStr(ptr noundef %0, i32 noundef %1, i32 noundef %2, i32 noundef %3, float noundef %4, float noundef %5, i32 noundef %6, i32 noundef %7, i32 noundef %8)
  %.not = icmp eq ptr %16, null
  br i1 %.not, label %24, label %17

17:                                               ; preds = %15
  %18 = getelementptr i8, ptr %16, i64 8
  %.val22 = load ptr, ptr %18, align 8, !tbaa !3
  %19 = getelementptr i8, ptr %16, i64 4
  %.val = load i32, ptr %19, align 4, !tbaa !10
  %20 = sext i32 %.val to i64
  %21 = tail call i64 @fwrite(ptr noundef %.val22, i64 noundef 1, i64 noundef %20, ptr noundef nonnull %11)
  %22 = load ptr, ptr %18, align 8, !tbaa !3
  %.not.i = icmp eq ptr %22, null
  br i1 %.not.i, label %Vec_StrFree.exit, label %23

23:                                               ; preds = %17
  tail call void @free(ptr noundef nonnull %22) #20
  br label %Vec_StrFree.exit

Vec_StrFree.exit:                                 ; preds = %17, %23
  tail call void @free(ptr noundef nonnull %16) #20
  br label %24

24:                                               ; preds = %Vec_StrFree.exit, %15
  %25 = tail call i32 @fclose(ptr noundef nonnull %11)
  %.not21 = icmp eq i32 %8, 0
  br i1 %.not21, label %32, label %26

26:                                               ; preds = %24
  %27 = tail call i32 (ptr, ...) @printf(ptr noundef nonnull dereferenceable(1) @.str.2, ptr noundef %9)
  %28 = tail call i32 @Extra_FileSize(ptr noundef %9) #20
  %29 = sitofp i32 %28 to double
  %30 = fmul double %29, 0x3EB0000000000000
  %31 = tail call i32 (ptr, ...) @printf(ptr noundef nonnull dereferenceable(1) @.str.3, double noundef %30)
  br label %32

32:                                               ; preds = %24, %26, %13
  ret void
}